target datalayout = "e-m:e-p270:32:32-p271:32:32-p272:64:64-i64:64-i128:128-f80:128-n8:16:32:64-S128"
target triple = "x86_64-pc-linux-gnu"

%struct.fdt_header = type { i32, i32, i32, i32, i32, i32, i32, i32, i32, i32 }

; Function Attrs: nounwind uwtable
define i64 @fdt_header_size_(i32 noundef %0) #0 {
  %2 = alloca i64, align 8
  %3 = alloca i32, align 4
  store i32 %0, ptr %3, align 4, !tbaa !7
  %4 = load i32, ptr %3, align 4, !tbaa !7
  %5 = icmp ule i32 %4, 1
  br i1 %5, label %6, label %7

6:                                                ; preds = %1
  store i64 28, ptr %2, align 8
  br label %20

7:                                                ; preds = %1
  %8 = load i32, ptr %3, align 4, !tbaa !7
  %9 = icmp ule i32 %8, 2
  br i1 %9, label %10, label %11

10:                                               ; preds = %7
  store i64 32, ptr %2, align 8
  br label %20

11:                                               ; preds = %7
  %12 = load i32, ptr %3, align 4, !tbaa !7
  %13 = icmp ule i32 %12, 3
  br i1 %13, label %14, label %15

14:                                               ; preds = %11
  store i64 36, ptr %2, align 8
  br label %20

15:                                               ; preds = %11
  %16 = load i32, ptr %3, align 4, !tbaa !7
  %17 = icmp ule i32 %16, 16
  br i1 %17, label %18, label %19

18:                                               ; preds = %15
  store i64 36, ptr %2, align 8
  br label %20

19:                                               ; preds = %15
  store i64 40, ptr %2, align 8
  br label %20

20:                                               ; preds = %19, %18, %14, %10, %6
  %21 = load i64, ptr %2, align 8
  ret i64 %21
}

; Function Attrs: nounwind uwtable
define internal i32 @check_block_(i32 noundef %0, i32 noundef %1, i32 noundef %2, i32 noundef %3) #0 {
  %5 = alloca i32, align 4
  %6 = alloca i32, align 4
  %7 = alloca i32, align 4
  %8 = alloca i32, align 4
  %9 = alloca i32, align 4
  store i32 %0, ptr %6, align 4, !tbaa !7
  store i32 %1, ptr %7, align 4, !tbaa !7
  store i32 %2, ptr %8, align 4, !tbaa !7
  store i32 %3, ptr %9, align 4, !tbaa !7
  %10 = load i32, ptr %6, align 4, !tbaa !7
  %11 = load i32, ptr %7, align 4, !tbaa !7
  %12 = load i32, ptr %8, align 4, !tbaa !7
  %13 = call i32 @check_off_(i32 noundef %10, i32 noundef %11, i32 noundef %12)
  %14 = icmp ne i32 %13, 0
  br i1 %14, label %16, label %15

15:                                               ; preds = %4
  store i32 0, ptr %5, align 4
  br label %33

16:                                               ; preds = %4
  %17 = load i32, ptr %8, align 4, !tbaa !7
  %18 = load i32, ptr %9, align 4, !tbaa !7
  %19 = add i32 %17, %18
  %20 = load i32, ptr %8, align 4, !tbaa !7
  %21 = icmp ult i32 %19, %20
  br i1 %21, label %22, label %23

22:                                               ; preds = %16
  store i32 0, ptr %5, align 4
  br label %33

23:                                               ; preds = %16
  %24 = load i32, ptr %6, align 4, !tbaa !7
  %25 = load i32, ptr %7, align 4, !tbaa !7
  %26 = load i32, ptr %8, align 4, !tbaa !7
  %27 = load i32, ptr %9, align 4, !tbaa !7
  %28 = add i32 %26, %27
  %29 = call i32 @check_off_(i32 noundef %24, i32 noundef %25, i32 noundef %28)
  %30 = icmp ne i32 %29, 0
  br i1 %30, label %32, label %31

31:                                               ; preds = %23
  store i32 0, ptr %5, align 4
  br label %33

32:                                               ; preds = %23
  store i32 1, ptr %5, align 4
  br label %33

33:                                               ; preds = %32, %31, %22, %15
  %34 = load i32, ptr %5, align 4
  ret i32 %34
}

; Function Attrs: nounwind uwtable
define internal i32 @check_off_(i32 noundef %0, i32 noundef %1, i32 noundef %2) #0 {
  %4 = alloca i32, align 4
  %5 = alloca i32, align 4
  %6 = alloca i32, align 4
  store i32 %0, ptr %4, align 4, !tbaa !7
  store i32 %1, ptr %5, align 4, !tbaa !7
  store i32 %2, ptr %6, align 4, !tbaa !7
  %7 = load i32, ptr %6, align 4, !tbaa !7
  %8 = load i32, ptr %4, align 4, !tbaa !7
  %9 = icmp uge i32 %7, %8
  br i1 %9, label %10, label %14

10:                                               ; preds = %3
  %11 = load i32, ptr %6, align 4, !tbaa !7
  %12 = load i32, ptr %5, align 4, !tbaa !7
  %13 = icmp ule i32 %11, %12
  br label %14

14:                                               ; preds = %10, %3
  %15 = phi i1 [ false, %3 ], [ %13, %10 ]
  %16 = zext i1 %15 to i32
  ret i32 %16
}

; Function Attrs: inlinehint nounwind uwtable
define internal i64 @fdt_header_size(ptr noundef %0) #2 {
  %2 = alloca ptr, align 8
  store ptr %0, ptr %2, align 8, !tbaa !3
  %3 = load ptr, ptr %2, align 8, !tbaa !3
  %4 = getelementptr inbounds nuw %struct.fdt_header, ptr %3, i32 0, i32 5
  %5 = call i32 @fdt32_ld(ptr noundef %4)
  %6 = call i64 @fdt_header_size_(i32 noundef %5)
  ret i64 %6
}

; Function Attrs: inlinehint nounwind uwtable
define internal i32 @fdt32_ld(ptr noundef %0) #2 {
  %2 = alloca ptr, align 8
  %3 = alloca ptr, align 8
  store ptr %0, ptr %2, align 8, !tbaa !9
  call void @llvm.lifetime.start.p0(i64 8, ptr %3) #5
  %4 = load ptr, ptr %2, align 8, !tbaa !9
  store ptr %4, ptr %3, align 8, !tbaa !11
  %5 = load ptr, ptr %3, align 8, !tbaa !11
  %6 = getelementptr inbounds i8, ptr %5, i64 0
  %7 = load i8, ptr %6, align 1, !tbaa !13
  %8 = zext i8 %7 to i32
  %9 = shl i32 %8, 24
  %10 = load ptr, ptr %3, align 8, !tbaa !11
  %11 = getelementptr inbounds i8, ptr %10, i64 1
  %12 = load i8, ptr %11, align 1, !tbaa !13
  %13 = zext i8 %12 to i32
  %14 = shl i32 %13, 16
  %15 = or i32 %9, %14
  %16 = load ptr, ptr %3, align 8, !tbaa !11
  %17 = getelementptr inbounds i8, ptr %16, i64 2
  %18 = load i8, ptr %17, align 1, !tbaa !13
  %19 = zext i8 %18 to i32
  %20 = shl i32 %19, 8
  %21 = or i32 %15, %20
  %22 = load ptr, ptr %3, align 8, !tbaa !11
  %23 = getelementptr inbounds i8, ptr %22, i64 3
  %24 = load i8, ptr %23, align 1, !tbaa !13
  %25 = zext i8 %24 to i32
  %26 = or i32 %21, %25
  call void @llvm.lifetime.end.p0(i64 8, ptr %3) #5
  ret i32 %26
}

; Function Attrs: nounwind uwtable
define i32 @fdt_check_header(ptr noundef %0) #0 {
  %2 = alloca i32, align 4
  %3 = alloca ptr, align 8
  %4 = alloca i64, align 8
  %5 = alloca i32, align 4
  store ptr %0, ptr %3, align 8, !tbaa !3
  call void @llvm.lifetime.start.p0(i64 8, ptr %4) #5
  %6 = load ptr, ptr %3, align 8, !tbaa !3
  %7 = getelementptr inbounds nuw %struct.fdt_header, ptr %6, i32 0, i32 0
  %8 = call i32 @fdt32_ld(ptr noundef %7)
  %9 = icmp ne i32 %8, -804389139
  br i1 %9, label %10, label %11

10:                                               ; preds = %1
  store i32 -9, ptr %2, align 4
  store i32 1, ptr %5, align 4
  br label %108

11:                                               ; preds = %1
  %12 = load ptr, ptr %3, align 8, !tbaa !3
  %13 = call i64 @fdt_header_size(ptr noundef %12)
  store i64 %13, ptr %4, align 8, !tbaa !14
  %14 = load ptr, ptr %3, align 8, !tbaa !3
  %15 = getelementptr inbounds nuw %struct.fdt_header, ptr %14, i32 0, i32 5
  %16 = call i32 @fdt32_ld(ptr noundef %15)
  %17 = icmp ult i32 %16, 2
  br i1 %17, label %23, label %18

18:                                               ; preds = %11
  %19 = load ptr, ptr %3, align 8, !tbaa !3
  %20 = getelementptr inbounds nuw %struct.fdt_header, ptr %19, i32 0, i32 6
  %21 = call i32 @fdt32_ld(ptr noundef %20)
  %22 = icmp ugt i32 %21, 17
  br i1 %22, label %23, label %24

23:                                               ; preds = %18, %11
  store i32 -10, ptr %2, align 4
  store i32 1, ptr %5, align 4
  br label %108

24:                                               ; preds = %18
  %25 = load ptr, ptr %3, align 8, !tbaa !3
  %26 = getelementptr inbounds nuw %struct.fdt_header, ptr %25, i32 0, i32 5
  %27 = call i32 @fdt32_ld(ptr noundef %26)
  %28 = load ptr, ptr %3, align 8, !tbaa !3
  %29 = getelementptr inbounds nuw %struct.fdt_header, ptr %28, i32 0, i32 6
  %30 = call i32 @fdt32_ld(ptr noundef %29)
  %31 = icmp ult i32 %27, %30
  br i1 %31, label %32, label %33

32:                                               ; preds = %24
  store i32 -10, ptr %2, align 4
  store i32 1, ptr %5, align 4
  br label %108

33:                                               ; preds = %24
  %34 = load ptr, ptr %3, align 8, !tbaa !3
  %35 = getelementptr inbounds nuw %struct.fdt_header, ptr %34, i32 0, i32 1
  %36 = call i32 @fdt32_ld(ptr noundef %35)
  %37 = zext i32 %36 to i64
  %38 = load i64, ptr %4, align 8, !tbaa !14
  %39 = icmp ult i64 %37, %38
  br i1 %39, label %45, label %40

40:                                               ; preds = %33
  %41 = load ptr, ptr %3, align 8, !tbaa !3
  %42 = getelementptr inbounds nuw %struct.fdt_header, ptr %41, i32 0, i32 1
  %43 = call i32 @fdt32_ld(ptr noundef %42)
  %44 = icmp ugt i32 %43, 2147483647
  br i1 %44, label %45, label %46

45:                                               ; preds = %40, %33
  store i32 -8, ptr %2, align 4
  store i32 1, ptr %5, align 4
  br label %108

46:                                               ; preds = %40
  %47 = load i64, ptr %4, align 8, !tbaa !14
  %48 = trunc i64 %47 to i32
  %49 = load ptr, ptr %3, align 8, !tbaa !3
  %50 = getelementptr inbounds nuw %struct.fdt_header, ptr %49, i32 0, i32 1
  %51 = call i32 @fdt32_ld(ptr noundef %50)
  %52 = load ptr, ptr %3, align 8, !tbaa !3
  %53 = getelementptr inbounds nuw %struct.fdt_header, ptr %52, i32 0, i32 4
  %54 = call i32 @fdt32_ld(ptr noundef %53)
  %55 = call i32 @check_off_(i32 noundef %48, i32 noundef %51, i32 noundef %54)
  %56 = icmp ne i32 %55, 0
  br i1 %56, label %58, label %57

57:                                               ; preds = %46
  store i32 -8, ptr %2, align 4
  store i32 1, ptr %5, align 4
  br label %108

58:                                               ; preds = %46
  %59 = load ptr, ptr %3, align 8, !tbaa !3
  %60 = getelementptr inbounds nuw %struct.fdt_header, ptr %59, i32 0, i32 5
  %61 = call i32 @fdt32_ld(ptr noundef %60)
  %62 = icmp ult i32 %61, 17
  br i1 %62, label %63, label %76

63:                                               ; preds = %58
  %64 = load i64, ptr %4, align 8, !tbaa !14
  %65 = trunc i64 %64 to i32
  %66 = load ptr, ptr %3, align 8, !tbaa !3
  %67 = getelementptr inbounds nuw %struct.fdt_header, ptr %66, i32 0, i32 1
  %68 = call i32 @fdt32_ld(ptr noundef %67)
  %69 = load ptr, ptr %3, align 8, !tbaa !3
  %70 = getelementptr inbounds nuw %struct.fdt_header, ptr %69, i32 0, i32 2
  %71 = call i32 @fdt32_ld(ptr noundef %70)
  %72 = call i32 @check_off_(i32 noundef %65, i32 noundef %68, i32 noundef %71)
  %73 = icmp ne i32 %72, 0
  br i1 %73, label %75, label %74

74:                                               ; preds = %63
  store i32 -8, ptr %2, align 4
  store i32 1, ptr %5, align 4
  br label %108

75:                                               ; preds = %63
  br label %92

76:                                               ; preds = %58
  %77 = load i64, ptr %4, align 8, !tbaa !14
  %78 = trunc i64 %77 to i32
  %79 = load ptr, ptr %3, align 8, !tbaa !3
  %80 = getelementptr inbounds nuw %struct.fdt_header, ptr %79, i32 0, i32 1
  %81 = call i32 @fdt32_ld(ptr noundef %80)
  %82 = load ptr, ptr %3, align 8, !tbaa !3
  %83 = getelementptr inbounds nuw %struct.fdt_header, ptr %82, i32 0, i32 2
  %84 = call i32 @fdt32_ld(ptr noundef %83)
  %85 = load ptr, ptr %3, align 8, !tbaa !3
  %86 = getelementptr inbounds nuw %struct.fdt_header, ptr %85, i32 0, i32 9
  %87 = call i32 @fdt32_ld(ptr noundef %86)
  %88 = call i32 @check_block_(i32 noundef %78, i32 noundef %81, i32 noundef %84, i32 noundef %87)
  %89 = icmp ne i32 %88, 0
  br i1 %89, label %91, label %90

90:                                               ; preds = %76
  store i32 -8, ptr %2, align 4
  store i32 1, ptr %5, align 4
  br label %108

91:                                               ; preds = %76
  br label %92

92:                                               ; preds = %91, %75
  %93 = load i64, ptr %4, align 8, !tbaa !14
  %94 = trunc i64 %93 to i32
  %95 = load ptr, ptr %3, align 8, !tbaa !3
  %96 = getelementptr inbounds nuw %struct.fdt_header, ptr %95, i32 0, i32 1
  %97 = call i32 @fdt32_ld(ptr noundef %96)
  %98 = load ptr, ptr %3, align 8, !tbaa !3
  %99 = getelementptr inbounds nuw %struct.fdt_header, ptr %98, i32 0, i32 3
  %100 = call i32 @fdt32_ld(ptr noundef %99)
  %101 = load ptr, ptr %3, align 8, !tbaa !3
  %102 = getelementptr inbounds nuw %struct.fdt_header, ptr %101, i32 0, i32 8
  %103 = call i32 @fdt32_ld(ptr noundef %102)
  %104 = call i32 @check_block_(i32 noundef %94, i32 noundef %97, i32 noundef %100, i32 noundef %103)
  %105 = icmp ne i32 %104, 0
  br i1 %105, label %107, label %106

106:                                              ; preds = %92
  store i32 -8, ptr %2, align 4
  store i32 1, ptr %5, align 4
  br label %108

107:                                              ; preds = %92
  store i32 0, ptr %2, align 4
  store i32 1, ptr %5, align 4
  br label %108

108:                                              ; preds = %107, %106, %90, %74, %57, %45, %32, %23, %10
  call void @llvm.lifetime.end.p0(i64 8, ptr %4) #5
  %109 = load i32, ptr %2, align 4
  ret i32 %109
}