; Function Attrs: mustprogress nofree norecurse nosync nounwind willreturn memory(argmem: read) uwtable
define range(i32 -10, 1) i32 @fdt_check_header(ptr noundef readonly captures(none) %0) local_unnamed_addr #0 {
  %2 = load i8, ptr %0, align 1, !tbaa !3
  %3 = zext i8 %2 to i32
  %4 = shl nuw i32 %3, 24
  %5 = getelementptr inbounds nuw i8, ptr %0, i64 1
  %6 = load i8, ptr %5, align 1, !tbaa !3
  %7 = zext i8 %6 to i32
  %8 = shl nuw nsw i32 %7, 16
  %9 = or disjoint i32 %8, %4
  %10 = getelementptr inbounds nuw i8, ptr %0, i64 2
  %11 = load i8, ptr %10, align 1, !tbaa !3
  %12 = zext i8 %11 to i32
  %13 = shl nuw nsw i32 %12, 8
  %14 = or disjoint i32 %9, %13
  %15 = getelementptr inbounds nuw i8, ptr %0, i64 3
  %16 = load i8, ptr %15, align 1, !tbaa !3
  %17 = zext i8 %16 to i32
  %18 = or disjoint i32 %14, %17
  %.not = icmp eq i32 %18, -804389139
  br i1 %.not, label %19, label %check_block_.exit.thread

19:                                               ; preds = %1
  %20 = getelementptr inbounds nuw i8, ptr %0, i64 20
  %21 = load i8, ptr %20, align 1, !tbaa !3
  %22 = zext i8 %21 to i32
  %23 = shl nuw i32 %22, 24
  %24 = getelementptr inbounds nuw i8, ptr %0, i64 21
  %25 = load i8, ptr %24, align 1, !tbaa !3
  %26 = zext i8 %25 to i32
  %27 = shl nuw nsw i32 %26, 16
  %28 = getelementptr inbounds nuw i8, ptr %0, i64 22
  %29 = load i8, ptr %28, align 1, !tbaa !3
  %30 = zext i8 %29 to i32
  %31 = shl nuw nsw i32 %30, 8
  %32 = getelementptr inbounds nuw i8, ptr %0, i64 23
  %33 = load i8, ptr %32, align 1, !tbaa !3
  %34 = zext i8 %33 to i32
  %35 = or disjoint i32 %27, %31
  %36 = or disjoint i32 %35, %34
  %37 = or disjoint i32 %36, %23
  %38 = icmp ult i32 %37, 2
  br i1 %38, label %check_block_.exit.thread, label %39

39:                                               ; preds = %19
  %40 = icmp eq i32 %37, 2
  br i1 %40, label %45, label %41

41:                                               ; preds = %39
  %42 = icmp ult i32 %37, 4
  br i1 %42, label %45, label %43

43:                                               ; preds = %41
  %44 = icmp ult i32 %37, 17
  %..i.i = select i1 %44, i64 36, i64 40
  br label %45

45:                                               ; preds = %39, %41, %43
  %.0.i.i.ph = phi i64 [ %..i.i, %43 ], [ 36, %41 ], [ 32, %39 ]
  %46 = getelementptr inbounds nuw i8, ptr %0, i64 24
  %47 = load i8, ptr %46, align 1, !tbaa !3
  %48 = zext i8 %47 to i32
  %49 = shl nuw i32 %48, 24
  %50 = getelementptr inbounds nuw i8, ptr %0, i64 25
  %51 = load i8, ptr %50, align 1, !tbaa !3
  %52 = zext i8 %51 to i32
  %53 = shl nuw nsw i32 %52, 16
  %54 = or disjoint i32 %53, %49
  %55 = getelementptr inbounds nuw i8, ptr %0, i64 26
  %56 = load i8, ptr %55, align 1, !tbaa !3
  %57 = zext i8 %56 to i32
  %58 = shl nuw nsw i32 %57, 8
  %59 = or disjoint i32 %54, %58
  %60 = getelementptr inbounds nuw i8, ptr %0, i64 27
  %61 = load i8, ptr %60, align 1, !tbaa !3
  %62 = zext i8 %61 to i32
  %63 = or disjoint i32 %59, %62
  %64 = icmp ugt i32 %63, 17
  %65 = icmp ult i32 %37, %63
  %or.cond = or i1 %64, %65
  br i1 %or.cond, label %check_block_.exit.thread, label %66

66:                                               ; preds = %45
  %67 = getelementptr inbounds nuw i8, ptr %0, i64 4
  %68 = load i8, ptr %67, align 1, !tbaa !3
  %69 = zext i8 %68 to i32
  %70 = shl nuw i32 %69, 24
  %71 = getelementptr inbounds nuw i8, ptr %0, i64 5
  %72 = load i8, ptr %71, align 1, !tbaa !3
  %73 = zext i8 %72 to i32
  %74 = shl nuw nsw i32 %73, 16
  %75 = getelementptr inbounds nuw i8, ptr %0, i64 6
  %76 = load i8, ptr %75, align 1, !tbaa !3
  %77 = zext i8 %76 to i32
  %78 = shl nuw nsw i32 %77, 8
  %79 = getelementptr inbounds nuw i8, ptr %0, i64 7
  %80 = load i8, ptr %79, align 1, !tbaa !3
  %81 = zext i8 %80 to i32
  %82 = or disjoint i32 %74, %81
  %83 = or disjoint i32 %82, %78
  %84 = or disjoint i32 %83, %70
  %85 = zext i32 %84 to i64
  %86 = icmp samesign ugt i64 %.0.i.i.ph, %85
  %87 = icmp slt i32 %70, 0
  %or.cond38 = or i1 %87, %86
  br i1 %or.cond38, label %check_block_.exit.thread, label %88

88:                                               ; preds = %66
  %89 = trunc nuw nsw i64 %.0.i.i.ph to i32
  %90 = getelementptr inbounds nuw i8, ptr %0, i64 16
  %91 = load i8, ptr %90, align 1, !tbaa !3
  %92 = zext i8 %91 to i32
  %93 = shl nuw i32 %92, 24
  %94 = getelementptr inbounds nuw i8, ptr %0, i64 17
  %95 = load i8, ptr %94, align 1, !tbaa !3
  %96 = zext i8 %95 to i32
  %97 = shl nuw nsw i32 %96, 16
  %98 = or disjoint i32 %97, %93
  %99 = getelementptr inbounds nuw i8, ptr %0, i64 18
  %100 = load i8, ptr %99, align 1, !tbaa !3
  %101 = zext i8 %100 to i32
  %102 = shl nuw nsw i32 %101, 8
  %103 = or disjoint i32 %98, %102
  %104 = getelementptr inbounds nuw i8, ptr %0, i64 19
  %105 = load i8, ptr %104, align 1, !tbaa !3
  %106 = zext i8 %105 to i32
  %107 = or disjoint i32 %103, %106
  %108 = icmp ult i32 %107, %89
  %109 = icmp ugt i32 %107, %84
  %.not41 = or i1 %108, %109
  br i1 %.not41, label %check_block_.exit.thread, label %110

110:                                              ; preds = %88
  %111 = icmp ult i32 %37, 17
  %112 = getelementptr inbounds nuw i8, ptr %0, i64 8
  %113 = load i8, ptr %112, align 1, !tbaa !3
  %114 = zext i8 %113 to i32
  %115 = shl nuw i32 %114, 24
  %116 = getelementptr inbounds nuw i8, ptr %0, i64 9
  %117 = load i8, ptr %116, align 1, !tbaa !3
  %118 = zext i8 %117 to i32
  %119 = shl nuw nsw i32 %118, 16
  %120 = or disjoint i32 %119, %115
  %121 = getelementptr inbounds nuw i8, ptr %0, i64 10
  %122 = load i8, ptr %121, align 1, !tbaa !3
  %123 = zext i8 %122 to i32
  %124 = shl nuw nsw i32 %123, 8
  %125 = or disjoint i32 %120, %124
  %126 = getelementptr inbounds nuw i8, ptr %0, i64 11
  %127 = load i8, ptr %126, align 1, !tbaa !3
  %128 = zext i8 %127 to i32
  %129 = or disjoint i32 %125, %128
  %130 = icmp ult i32 %129, %89
  %131 = icmp ugt i32 %129, %84
  %.not45 = or i1 %130, %131
  br i1 %111, label %132, label %133

132:                                              ; preds = %110
  br i1 %.not45, label %check_block_.exit.thread, label %155

133:                                              ; preds = %110
  br i1 %.not45, label %check_block_.exit.thread, label %134

134:                                              ; preds = %133
  %135 = getelementptr inbounds nuw i8, ptr %0, i64 37
  %136 = load i8, ptr %135, align 1, !tbaa !3
  %137 = zext i8 %136 to i32
  %138 = shl nuw nsw i32 %137, 16
  %139 = getelementptr inbounds nuw i8, ptr %0, i64 36
  %140 = load i8, ptr %139, align 1, !tbaa !3
  %141 = zext i8 %140 to i32
  %142 = shl nuw i32 %141, 24
  %143 = or disjoint i32 %142, %138
  %144 = getelementptr inbounds nuw i8, ptr %0, i64 38
  %145 = load i8, ptr %144, align 1, !tbaa !3
  %146 = zext i8 %145 to i32
  %147 = shl nuw nsw i32 %146, 8
  %148 = or disjoint i32 %143, %147
  %149 = getelementptr inbounds nuw i8, ptr %0, i64 39
  %150 = load i8, ptr %149, align 1, !tbaa !3
  %151 = zext i8 %150 to i32
  %152 = or disjoint i32 %148, %151
  %153 = add i32 %152, %129
  %154 = icmp ult i32 %153, %129
  %.not42 = icmp ugt i32 %153, %84
  %or.cond47 = or i1 %154, %.not42
  br i1 %or.cond47, label %check_block_.exit.thread, label %155

155:                                              ; preds = %134, %132
  %156 = getelementptr inbounds nuw i8, ptr %0, i64 12
  %157 = load i8, ptr %156, align 1, !tbaa !3
  %158 = zext i8 %157 to i32
  %159 = shl nuw i32 %158, 24
  %160 = getelementptr inbounds nuw i8, ptr %0, i64 13
  %161 = load i8, ptr %160, align 1, !tbaa !3
  %162 = zext i8 %161 to i32
  %163 = shl nuw nsw i32 %162, 16
  %164 = or disjoint i32 %163, %159
  %165 = getelementptr inbounds nuw i8, ptr %0, i64 14
  %166 = load i8, ptr %165, align 1, !tbaa !3
  %167 = zext i8 %166 to i32
  %168 = shl nuw nsw i32 %167, 8
  %169 = or disjoint i32 %164, %168
  %170 = getelementptr inbounds nuw i8, ptr %0, i64 15
  %171 = load i8, ptr %170, align 1, !tbaa !3
  %172 = zext i8 %171 to i32
  %173 = or disjoint i32 %169, %172
  %174 = icmp ult i32 %173, %89
  %175 = icmp ugt i32 %173, %84
  %.not15.i29 = or i1 %174, %175
  br i1 %.not15.i29, label %check_block_.exit32.thread, label %176

176:                                              ; preds = %155
  %177 = getelementptr inbounds nuw i8, ptr %0, i64 33
  %178 = load i8, ptr %177, align 1, !tbaa !3
  %179 = zext i8 %178 to i32
  %180 = shl nuw nsw i32 %179, 16
  %181 = getelementptr inbounds nuw i8, ptr %0, i64 32
  %182 = load i8, ptr %181, align 1, !tbaa !3
  %183 = zext i8 %182 to i32
  %184 = shl nuw i32 %183, 24
  %185 = or disjoint i32 %184, %180
  %186 = getelementptr inbounds nuw i8, ptr %0, i64 34
  %187 = load i8, ptr %186, align 1, !tbaa !3
  %188 = zext i8 %187 to i32
  %189 = shl nuw nsw i32 %188, 8
  %190 = or disjoint i32 %185, %189
  %191 = getelementptr inbounds nuw i8, ptr %0, i64 35
  %192 = load i8, ptr %191, align 1, !tbaa !3
  %193 = zext i8 %192 to i32
  %194 = or disjoint i32 %190, %193
  %195 = add i32 %194, %173
  %196 = icmp ult i32 %195, %173
  br i1 %196, label %check_block_.exit32.thread, label %check_block_.exit32

check_block_.exit32:                              ; preds = %176
  %.not46 = icmp ugt i32 %195, %84
  %cond.fr = freeze i1 %.not46
  br i1 %cond.fr, label %check_block_.exit32.thread, label %check_block_.exit.thread

check_block_.exit32.thread:                       ; preds = %176, %155, %check_block_.exit32
  br label %check_block_.exit.thread

check_block_.exit.thread:                         ; preds = %19, %134, %133, %check_block_.exit32.thread, %check_block_.exit32, %132, %88, %66, %45, %1
  %.0 = phi i32 [ -9, %1 ], [ -10, %45 ], [ -8, %66 ], [ -8, %88 ], [ -8, %132 ], [ -8, %check_block_.exit32.thread ], [ 0, %check_block_.exit32 ], [ -8, %133 ], [ -8, %134 ], [ -10, %19 ]
  ret i32 %.0
}